; Function Attrs: mustprogress uwtable
define void @_ZN2cv3dnn14dnn4_v2024052116readNetFromTorchERKNSt7__cxx1112basic_stringIcSt11char_traitsIcESaIcEEEbb(ptr dead_on_unwind noalias writable sret(%"class.cv::dnn::dnn4_v20240521::Net") align 8 %0, ptr noundef nonnull align 8 dereferenceable(32) %1, i1 noundef zeroext %2, i1 noundef zeroext %3) local_unnamed_addr #3 personality ptr @__gxx_personality_v0 {
  %5 = alloca %"class.cv::utils::trace::details::Region", align 8
  %6 = alloca %"struct.cv::dnn::dnn4_v20240521::TorchImporter", align 8
  %7 = alloca %"class.std::__cxx11::basic_string", align 8
  %8 = alloca %"class.cv::dnn::dnn4_v20240521::Net", align 8
  call void @_ZN2cv5utils5trace7details6RegionC1ERKNS3_21LocationStaticStorageE(ptr noundef nonnull align 8 dereferenceable(12) %5, ptr noundef nonnull align 8 dereferenceable(32) @_ZZN2cv3dnn14dnn4_v2024052116readNetFromTorchERKNSt7__cxx1112basic_stringIcSt11char_traitsIcESaIcEEEbbE26__cv_trace_location_fn1261)
  invoke void @_ZNSt7__cxx1112basic_stringIcSt11char_traitsIcESaIcEEC1ERKS4_(ptr noundef nonnull align 8 dereferenceable(32) %7, ptr noundef nonnull align 8 dereferenceable(32) %1)
          to label %9 unwind label %31

9:                                                ; preds = %4
  invoke void @_ZN2cv3dnn14dnn4_v2024052113TorchImporterC2ENSt7__cxx1112basic_stringIcSt11char_traitsIcESaIcEEEbb(ptr noundef nonnull align 8 dereferenceable(285) %6, ptr noundef nonnull %7, i1 noundef zeroext %2, i1 noundef zeroext %3)
          to label %10 unwind label %33

10:                                               ; preds = %9
  call void @_ZNSt7__cxx1112basic_stringIcSt11char_traitsIcESaIcEED1Ev(ptr noundef nonnull align 8 dereferenceable(32) %7) #18
  invoke void @_ZN2cv3dnn14dnn4_v202405213NetC1Ev(ptr noundef nonnull align 8 dereferenceable(16) %0)
          to label %11 unwind label %35

11:                                               ; preds = %10
  %12 = load ptr, ptr %0, align 8
  store ptr %12, ptr %8, align 8
  %13 = getelementptr inbounds i8, ptr %8, i64 8
  %14 = getelementptr inbounds i8, ptr %0, i64 8
  %15 = load ptr, ptr %14, align 8
  store ptr %15, ptr %13, align 8
  %.not.i.i.i.i.i = icmp eq ptr %15, null
  br i1 %.not.i.i.i.i.i, label %_ZN2cv3dnn14dnn4_v202405213NetC2ERKS2_.exit, label %16

16:                                               ; preds = %11
  %17 = getelementptr inbounds i8, ptr %15, i64 8
  %18 = load i8, ptr @__libc_single_threaded, align 1
  %.not.i.i.i.i.i.i = icmp eq i8 %18, 0
  br i1 %.not.i.i.i.i.i.i, label %22, label %19

19:                                               ; preds = %16
  %20 = load i32, ptr %17, align 4
  %21 = add nsw i32 %20, 1
  store i32 %21, ptr %17, align 4
  br label %_ZN2cv3dnn14dnn4_v202405213NetC2ERKS2_.exit

22:                                               ; preds = %16
  %23 = atomicrmw volatile add ptr %17, i32 1 acq_rel, align 4
  br label %_ZN2cv3dnn14dnn4_v202405213NetC2ERKS2_.exit

_ZN2cv3dnn14dnn4_v202405213NetC2ERKS2_.exit:      ; preds = %11, %19, %22
  invoke void @_ZN2cv3dnn14dnn4_v2024052113TorchImporter11populateNetENS1_3NetE(ptr noundef nonnull align 8 dereferenceable(285) %6, ptr noundef nonnull %8)
          to label %24 unwind label %37

24:                                               ; preds = %_ZN2cv3dnn14dnn4_v202405213NetC2ERKS2_.exit
  call void @_ZN2cv3dnn14dnn4_v202405213NetD1Ev(ptr noundef nonnull align 8 dereferenceable(16) %8) #18
  call void @_ZN2cv3dnn14dnn4_v2024052113TorchImporterD2Ev(ptr noundef nonnull align 8 dereferenceable(285) %6) #18
  %25 = getelementptr inbounds i8, ptr %5, i64 8
  %26 = load i32, ptr %25, align 8
  %.not.i = icmp eq i32 %26, 0
  br i1 %.not.i, label %_ZN2cv5utils5trace7details6RegionD2Ev.exit, label %27

27:                                               ; preds = %24
  invoke void @_ZN2cv5utils5trace7details6Region7destroyEv(ptr noundef nonnull align 8 dereferenceable(12) %5)
          to label %_ZN2cv5utils5trace7details6RegionD2Ev.exit unwind label %28

28:                                               ; preds = %27
  %29 = landingpad { ptr, i32 }
          catch ptr null
  %30 = extractvalue { ptr, i32 } %29, 0
  call void @__clang_call_terminate(ptr %30) #21
  unreachable

_ZN2cv5utils5trace7details6RegionD2Ev.exit:       ; preds = %24, %27
  ret void

31:                                               ; preds = %4
  %32 = landingpad { ptr, i32 }
          cleanup
  br label %40

33:                                               ; preds = %9
  %34 = landingpad { ptr, i32 }
          cleanup
  call void @_ZNSt7__cxx1112basic_stringIcSt11char_traitsIcESaIcEED1Ev(ptr noundef nonnull align 8 dereferenceable(32) %7) #18
  br label %40

35:                                               ; preds = %10
  %36 = landingpad { ptr, i32 }
          cleanup
  br label %39

37:                                               ; preds = %_ZN2cv3dnn14dnn4_v202405213NetC2ERKS2_.exit
  %38 = landingpad { ptr, i32 }
          cleanup
  call void @_ZN2cv3dnn14dnn4_v202405213NetD1Ev(ptr noundef nonnull align 8 dereferenceable(16) %8) #18
  call void @_ZN2cv3dnn14dnn4_v202405213NetD1Ev(ptr noundef nonnull align 8 dereferenceable(16) %0) #18
  br label %39

39:                                               ; preds = %37, %35
  %.pn = phi { ptr, i32 } [ %38, %37 ], [ %36, %35 ]
  call void @_ZN2cv3dnn14dnn4_v2024052113TorchImporterD2Ev(ptr noundef nonnull align 8 dereferenceable(285) %6) #18
  br label %40

40:                                               ; preds = %39, %33, %31
  %.pn.pn = phi { ptr, i32 } [ %.pn, %39 ], [ %34, %33 ], [ %32, %31 ]
  call void @_ZN2cv5utils5trace7details6RegionD2Ev(ptr noundef nonnull align 8 dereferenceable(12) %5) #18
  resume { ptr, i32 } %.pn.pn
}